target datalayout = "e-m:e-p270:32:32-p271:32:32-p272:64:64-i64:64-i128:128-f80:128-n8:16:32:64-S128"
target triple = "x86_64-pc-linux-gnu"

%struct._zend_phar_globals = type { %struct._zend_array, %struct._zend_array, ptr, %struct._zend_array, i32, i32, ptr, i32, i32, i32, i32, i8, i8, i8, i32, i32, i32, i32, ptr, ptr, ptr, ptr, ptr, ptr, ptr, ptr, ptr, ptr, ptr, ptr, ptr, ptr, ptr, ptr, ptr, ptr, ptr, ptr, ptr, ptr, ptr, i32, i32, ptr, i32, ptr, i32, ptr, i32, ptr, %struct._zend_array }
%struct._zend_array = type { %struct._zend_refcounted_h, %union.anon.0, i32, %union.anon.1, i32, i32, i32, i32, i64, ptr }
%struct._zend_refcounted_h = type { i32, %union.anon }
%union.anon = type { i32 }
%union.anon.0 = type { i32 }
%union.anon.1 = type { ptr }
%struct._zval_struct = type { %union._zend_value, %union.anon.3, %union.anon.6 }
%union._zend_value = type { i64 }
%union.anon.3 = type { i32 }
%union.anon.6 = type { i32 }
%struct._phar_archive_data = type { ptr, i32, ptr, i32, ptr, i32, [12 x i8], i64, i64, %struct._zend_array, %struct._zend_array, %struct._zend_array, i32, i32, i32, ptr, ptr, i32, i32, i32, ptr, %struct._phar_metadata_tracker, i32, i16 }
%struct._phar_metadata_tracker = type { %struct._zval_struct, ptr }

@phar_globals = hidden global %struct._zend_phar_globals zeroinitializer, align 8
@.str = private unnamed_addr constant [15 x i8] c".phar/stub.php\00", align 1
@.str.1 = private unnamed_addr constant [90 x i8] c"'%s' is not a phar archive. Use PharData::__construct() for a standard zip or tar archive\00", align 1
@.str.2 = private unnamed_addr constant [101 x i8] c"Cannot create a phar archive from a URL like \22%s\22. Phar objects can only be created from local files\00", align 1
@.str.3 = private unnamed_addr constant [104 x i8] c"Cannot create phar '%s', file extension (or combination) not recognised or the directory does not exist\00", align 1
@.str.4 = private unnamed_addr constant [87 x i8] c"Cannot open '%s' as a PharData object. Use Phar::__construct() for executable archives\00", align 1
@.str.5 = private unnamed_addr constant [3 x i8] c"ip\00", align 1
@.str.6 = private unnamed_addr constant [3 x i8] c"ar\00", align 1

; Function Attrs: nounwind uwtable
define hidden i32 @phar_open_or_create_filename(ptr noundef %0, i64 noundef %1, ptr noundef %2, i64 noundef %3, i1 noundef zeroext %4, i32 noundef %5, ptr noundef %6, ptr noundef %7) #0 {
  %9 = alloca ptr, align 8
  %10 = alloca ptr, align 8
  %11 = alloca ptr, align 8
  %12 = alloca i64, align 8
  %13 = alloca ptr, align 8
  %14 = alloca i32, align 4
  %15 = alloca ptr, align 8
  %16 = alloca i64, align 8
  %17 = alloca ptr, align 8
  %18 = alloca i64, align 8
  %19 = alloca i8, align 1
  %20 = alloca i32, align 4
  %21 = alloca ptr, align 8
  %22 = alloca ptr, align 8
  %23 = alloca ptr, align 8
  %24 = alloca ptr, align 8
  %25 = alloca ptr, align 8
  %26 = alloca i64, align 8
  %27 = alloca ptr, align 8
  %28 = alloca ptr, align 8
  %29 = alloca ptr, align 8
  store ptr %0, ptr %15, align 8
  store i64 %1, ptr %16, align 8
  store ptr %2, ptr %17, align 8
  store i64 %3, ptr %18, align 8
  %30 = zext i1 %4 to i8
  store i8 %30, ptr %19, align 1
  store i32 %5, ptr %20, align 4
  store ptr %6, ptr %21, align 8
  store ptr %7, ptr %22, align 8
  store ptr null, ptr %28, align 8
  store ptr %28, ptr %27, align 8
  %31 = load ptr, ptr %22, align 8
  %32 = icmp ne ptr %31, null
  br i1 %32, label %33, label %35

33:                                               ; preds = %8
  %34 = load ptr, ptr %22, align 8
  store ptr null, ptr %34, align 8
  br label %35

35:                                               ; preds = %33, %8
  %36 = load ptr, ptr %15, align 8
  %37 = load i64, ptr %16, align 8
  %38 = load i8, ptr %19, align 1
  %39 = trunc i8 %38 to i1
  %40 = xor i1 %39, true
  %41 = zext i1 %40 to i32
  %42 = call i32 @phar_detect_phar_fname_ext(ptr noundef %36, i64 noundef %37, ptr noundef %23, ptr noundef %26, i32 noundef %41, i32 noundef 0, i32 noundef 1)
  %43 = icmp eq i32 %42, 0
  br i1 %43, label %44, label %45

44:                                               ; preds = %35
  br label %71

45:                                               ; preds = %35
  %46 = load ptr, ptr %15, align 8
  %47 = load i64, ptr %16, align 8
  %48 = load i8, ptr %19, align 1
  %49 = trunc i8 %48 to i1
  %50 = xor i1 %49, true
  %51 = zext i1 %50 to i32
  %52 = call i32 @phar_detect_phar_fname_ext(ptr noundef %46, i64 noundef %47, ptr noundef %23, ptr noundef %26, i32 noundef %51, i32 noundef 1, i32 noundef 1)
  %53 = icmp eq i32 -1, %52
  br i1 %53, label %54, label %70

54:                                               ; preds = %45
  %55 = load ptr, ptr %22, align 8
  %56 = icmp ne ptr %55, null
  br i1 %56, label %57, label %69

57:                                               ; preds = %54
  %58 = load i64, ptr %26, align 8
  %59 = icmp eq i64 %58, -2
  br i1 %59, label %60, label %64

60:                                               ; preds = %57
  %61 = load ptr, ptr %22, align 8
  %62 = load ptr, ptr %15, align 8
  %63 = call i64 (ptr, i64, ptr, ...) @zend_spprintf(ptr noundef %61, i64 noundef 0, ptr noundef @.str.2, ptr noundef %62)
  br label %68

64:                                               ; preds = %57
  %65 = load ptr, ptr %22, align 8
  %66 = load ptr, ptr %15, align 8
  %67 = call i64 (ptr, i64, ptr, ...) @zend_spprintf(ptr noundef %65, i64 noundef 0, ptr noundef @.str.3, ptr noundef %66)
  br label %68

68:                                               ; preds = %64, %60
  br label %69

69:                                               ; preds = %68, %54
  store i32 -1, ptr %14, align 4
  br label %291

70:                                               ; preds = %45
  br label %71

71:                                               ; preds = %70, %44
  %72 = load ptr, ptr %15, align 8
  %73 = load i64, ptr %16, align 8
  %74 = load ptr, ptr %17, align 8
  %75 = load i64, ptr %18, align 8
  %76 = load i8, ptr %19, align 1
  %77 = trunc i8 %76 to i1
  %78 = load i32, ptr %20, align 4
  %79 = load ptr, ptr %27, align 8
  %80 = call i32 @phar_open_parsed_phar(ptr noundef %72, i64 noundef %73, ptr noundef %74, i64 noundef %75, i1 noundef zeroext %77, i32 noundef %78, ptr noundef %79, ptr noundef %25)
  %81 = icmp eq i32 %80, 0
  br i1 %81, label %82, label %199

82:                                               ; preds = %71
  %83 = load ptr, ptr %21, align 8
  %84 = icmp ne ptr %83, null
  br i1 %84, label %85, label %89

85:                                               ; preds = %82
  %86 = load ptr, ptr %27, align 8
  %87 = load ptr, ptr %86, align 8
  %88 = load ptr, ptr %21, align 8
  store ptr %87, ptr %88, align 8
  br label %89

89:                                               ; preds = %85, %82
  %90 = load ptr, ptr %27, align 8
  %91 = load ptr, ptr %90, align 8
  %92 = getelementptr inbounds %struct._phar_archive_data, ptr %91, i32 0, i32 23
  %93 = load i16, ptr %92, align 4
  %94 = lshr i16 %93, 7
  %95 = and i16 %94, 1
  %96 = zext i16 %95 to i32
  %97 = icmp ne i32 %96, 0
  br i1 %97, label %98, label %124

98:                                               ; preds = %89
  %99 = load ptr, ptr %27, align 8
  %100 = load ptr, ptr %99, align 8
  %101 = getelementptr inbounds %struct._phar_archive_data, ptr %100, i32 0, i32 23
  %102 = load i16, ptr %101, align 4
  %103 = lshr i16 %102, 6
  %104 = and i16 %103, 1
  %105 = zext i16 %104 to i32
  %106 = icmp ne i32 %105, 0
  br i1 %106, label %124, label %107

107:                                              ; preds = %98
  %108 = load ptr, ptr %27, align 8
  %109 = load ptr, ptr %108, align 8
  %110 = getelementptr inbounds %struct._phar_archive_data, ptr %109, i32 0, i32 23
  %111 = load i16, ptr %110, align 4
  %112 = lshr i16 %111, 5
  %113 = and i16 %112, 1
  %114 = zext i16 %113 to i32
  %115 = icmp ne i32 %114, 0
  br i1 %115, label %124, label %116

116:                                              ; preds = %107
  %117 = load ptr, ptr %22, align 8
  %118 = icmp ne ptr %117, null
  br i1 %118, label %119, label %123

119:                                              ; preds = %116
  %120 = load ptr, ptr %22, align 8
  %121 = load ptr, ptr %15, align 8
  %122 = call i64 (ptr, i64, ptr, ...) @zend_spprintf(ptr noundef %120, i64 noundef 0, ptr noundef @.str.4, ptr noundef %121)
  br label %123

123:                                              ; preds = %119, %116
  store i32 -1, ptr %14, align 4
  br label %291

124:                                              ; preds = %107, %98, %89
  %125 = load i32, ptr getelementptr inbounds (%struct._zend_phar_globals, ptr @phar_globals, i32 0, i32 5), align 4
  %126 = icmp ne i32 %125, 0
  br i1 %126, label %127, label %179

127:                                              ; preds = %124
  %128 = load ptr, ptr %27, align 8
  %129 = load ptr, ptr %128, align 8
  %130 = getelementptr inbounds %struct._phar_archive_data, ptr %129, i32 0, i32 23
  %131 = load i16, ptr %130, align 4
  %132 = lshr i16 %131, 7
  %133 = and i16 %132, 1
  %134 = zext i16 %133 to i32
  %135 = icmp ne i32 %134, 0
  br i1 %135, label %179, label %136

136:                                              ; preds = %127
  %137 = load ptr, ptr %27, align 8
  %138 = load ptr, ptr %137, align 8
  %139 = getelementptr inbounds %struct._phar_archive_data, ptr %138, i32 0, i32 23
  %140 = load i16, ptr %139, align 4
  %141 = lshr i16 %140, 6
  %142 = and i16 %141, 1
  %143 = zext i16 %142 to i32
  %144 = icmp ne i32 %143, 0
  br i1 %144, label %154, label %145

145:                                              ; preds = %136
  %146 = load ptr, ptr %27, align 8
  %147 = load ptr, ptr %146, align 8
  %148 = getelementptr inbounds %struct._phar_archive_data, ptr %147, i32 0, i32 23
  %149 = load i16, ptr %148, align 4
  %150 = lshr i16 %149, 5
  %151 = and i16 %150, 1
  %152 = zext i16 %151 to i32
  %153 = icmp ne i32 %152, 0
  br i1 %153, label %154, label %179

154:                                              ; preds = %145, %136
  %155 = load ptr, ptr %27, align 8
  %156 = load ptr, ptr %155, align 8
  %157 = getelementptr inbounds %struct._phar_archive_data, ptr %156, i32 0, i32 9
  store ptr %157, ptr %10, align 8
  store ptr @.str, ptr %11, align 8
  store i64 14, ptr %12, align 8
  %158 = load ptr, ptr %10, align 8
  %159 = load ptr, ptr %11, align 8
  %160 = load i64, ptr %12, align 8
  %161 = call ptr @zend_hash_str_find(ptr noundef %158, ptr noundef %159, i64 noundef %160) #13
  store ptr %161, ptr %13, align 8
  %162 = load ptr, ptr %13, align 8
  %163 = icmp ne ptr %162, null
  br i1 %163, label %164, label %170

164:                                              ; preds = %154
  %165 = load ptr, ptr %13, align 8
  %166 = load ptr, ptr %165, align 8
  %167 = icmp ne ptr %166, null
  call void @llvm.assume(i1 %167)
  %168 = load ptr, ptr %13, align 8
  %169 = load ptr, ptr %168, align 8
  store ptr %169, ptr %9, align 8
  br label %171

170:                                              ; preds = %154
  store ptr null, ptr %9, align 8
  br label %171

171:                                              ; preds = %170, %164
  %172 = load ptr, ptr %9, align 8
  store ptr %172, ptr %29, align 8
  %173 = icmp eq ptr null, %172
  br i1 %173, label %174, label %178

174:                                              ; preds = %171
  %175 = load ptr, ptr %22, align 8
  %176 = load ptr, ptr %15, align 8
  %177 = call i64 (ptr, i64, ptr, ...) @zend_spprintf(ptr noundef %175, i64 noundef 0, ptr noundef @.str.1, ptr noundef %176)
  store i32 -1, ptr %14, align 4
  br label %291

178:                                              ; preds = %171
  br label %179

179:                                              ; preds = %178, %145, %127, %124
  %180 = load i32, ptr getelementptr inbounds (%struct._zend_phar_globals, ptr @phar_globals, i32 0, i32 5), align 4
  %181 = icmp ne i32 %180, 0
  br i1 %181, label %182, label %191

182:                                              ; preds = %179
  %183 = load ptr, ptr %27, align 8
  %184 = load ptr, ptr %183, align 8
  %185 = getelementptr inbounds %struct._phar_archive_data, ptr %184, i32 0, i32 23
  %186 = load i16, ptr %185, align 4
  %187 = lshr i16 %186, 7
  %188 = and i16 %187, 1
  %189 = zext i16 %188 to i32
  %190 = icmp ne i32 %189, 0
  br i1 %190, label %191, label %198

191:                                              ; preds = %182, %179
  %192 = load ptr, ptr %27, align 8
  %193 = load ptr, ptr %192, align 8
  %194 = getelementptr inbounds %struct._phar_archive_data, ptr %193, i32 0, i32 23
  %195 = load i16, ptr %194, align 4
  %196 = and i16 %195, -5
  %197 = or i16 %196, 4
  store i16 %197, ptr %194, align 4
  br label %198

198:                                              ; preds = %191, %182
  store i32 0, ptr %14, align 4
  br label %291

199:                                              ; preds = %71
  %200 = load ptr, ptr %25, align 8
  %201 = icmp ne ptr %200, null
  br i1 %201, label %202, label %211

202:                                              ; preds = %199
  %203 = load ptr, ptr %22, align 8
  %204 = icmp ne ptr %203, null
  br i1 %204, label %205, label %208

205:                                              ; preds = %202
  %206 = load ptr, ptr %25, align 8
  %207 = load ptr, ptr %22, align 8
  store ptr %206, ptr %207, align 8
  br label %210

208:                                              ; preds = %202
  %209 = load ptr, ptr %25, align 8
  call void @_efree(ptr noundef %209)
  br label %210

210:                                              ; preds = %208, %205
  store i32 -1, ptr %14, align 4
  br label %291

211:                                              ; preds = %199
  br label %212

212:                                              ; preds = %211
  %213 = load i64, ptr %26, align 8
  %214 = icmp ugt i64 %213, 3
  br i1 %214, label %215, label %246

215:                                              ; preds = %212
  %216 = load ptr, ptr %23, align 8
  %217 = load i64, ptr %26, align 8
  %218 = call ptr @memchr(ptr noundef %216, i32 noundef 122, i64 noundef %217) #14
  store ptr %218, ptr %24, align 8
  %219 = icmp ne ptr %218, null
  br i1 %219, label %220, label %246

220:                                              ; preds = %215
  %221 = load ptr, ptr %23, align 8
  %222 = load i64, ptr %26, align 8
  %223 = getelementptr inbounds i8, ptr %221, i64 %222
  %224 = load ptr, ptr %24, align 8
  %225 = ptrtoint ptr %223 to i64
  %226 = ptrtoint ptr %224 to i64
  %227 = sub i64 %225, %226
  %228 = icmp sge i64 %227, 2
  br i1 %228, label %229, label %246

229:                                              ; preds = %220
  %230 = load ptr, ptr %24, align 8
  %231 = getelementptr inbounds i8, ptr %230, i64 1
  %232 = call i32 @memcmp(ptr noundef %231, ptr noundef @.str.5, i64 noundef 2) #14
  %233 = icmp ne i32 %232, 0
  br i1 %233, label %246, label %234

234:                                              ; preds = %229
  %235 = load ptr, ptr %15, align 8
  %236 = load i64, ptr %16, align 8
  %237 = load ptr, ptr %17, align 8
  %238 = load i64, ptr %18, align 8
  %239 = load i8, ptr %19, align 1
  %240 = trunc i8 %239 to i1
  %241 = zext i1 %240 to i32
  %242 = load i32, ptr %20, align 4
  %243 = load ptr, ptr %21, align 8
  %244 = load ptr, ptr %22, align 8
  %245 = call i32 @phar_open_or_create_zip(ptr noundef %235, i64 noundef %236, ptr noundef %237, i64 noundef %238, i32 noundef %241, i32 noundef %242, ptr noundef %243, ptr noundef %244)
  store i32 %245, ptr %14, align 4
  br label %291

246:                                              ; preds = %229, %220, %215, %212
  %247 = load i64, ptr %26, align 8
  %248 = icmp ugt i64 %247, 3
  br i1 %248, label %249, label %280

249:                                              ; preds = %246
  %250 = load ptr, ptr %23, align 8
  %251 = load i64, ptr %26, align 8
  %252 = call ptr @memchr(ptr noundef %250, i32 noundef 116, i64 noundef %251) #14
  store ptr %252, ptr %24, align 8
  %253 = icmp ne ptr %252, null
  br i1 %253, label %254, label %280

254:                                              ; preds = %249
  %255 = load ptr, ptr %23, align 8
  %256 = load i64, ptr %26, align 8
  %257 = getelementptr inbounds i8, ptr %255, i64 %256
  %258 = load ptr, ptr %24, align 8
  %259 = ptrtoint ptr %257 to i64
  %260 = ptrtoint ptr %258 to i64
  %261 = sub i64 %259, %260
  %262 = icmp sge i64 %261, 2
  br i1 %262, label %263, label %280

263:                                              ; preds = %254
  %264 = load ptr, ptr %24, align 8
  %265 = getelementptr inbounds i8, ptr %264, i64 1
  %266 = call i32 @memcmp(ptr noundef %265, ptr noundef @.str.6, i64 noundef 2) #14
  %267 = icmp ne i32 %266, 0
  br i1 %267, label %280, label %268

268:                                              ; preds = %263
  %269 = load ptr, ptr %15, align 8
  %270 = load i64, ptr %16, align 8
  %271 = load ptr, ptr %17, align 8
  %272 = load i64, ptr %18, align 8
  %273 = load i8, ptr %19, align 1
  %274 = trunc i8 %273 to i1
  %275 = zext i1 %274 to i32
  %276 = load i32, ptr %20, align 4
  %277 = load ptr, ptr %21, align 8
  %278 = load ptr, ptr %22, align 8
  %279 = call i32 @phar_open_or_create_tar(ptr noundef %269, i64 noundef %270, ptr noundef %271, i64 noundef %272, i32 noundef %275, i32 noundef %276, ptr noundef %277, ptr noundef %278)
  store i32 %279, ptr %14, align 4
  br label %291

280:                                              ; preds = %263, %254, %249, %246
  %281 = load ptr, ptr %15, align 8
  %282 = load i64, ptr %16, align 8
  %283 = load ptr, ptr %17, align 8
  %284 = load i64, ptr %18, align 8
  %285 = load i8, ptr %19, align 1
  %286 = trunc i8 %285 to i1
  %287 = load i32, ptr %20, align 4
  %288 = load ptr, ptr %21, align 8
  %289 = load ptr, ptr %22, align 8
  %290 = call i32 @phar_create_or_parse_filename(ptr noundef %281, i64 noundef %282, ptr noundef %283, i64 noundef %284, i1 noundef zeroext %286, i32 noundef %287, ptr noundef %288, ptr noundef %289)
  store i32 %290, ptr %14, align 4
  br label %291

291:                                              ; preds = %280, %268, %234, %210, %198, %174, %123, %69
  %292 = load i32, ptr %14, align 4
  ret i32 %292
}