; Function Attrs: nounwind uwtable
define hidden i32 @phar_open_or_create_filename(ptr noundef %0, i64 noundef %1, ptr noundef %2, i64 noundef %3, i1 noundef zeroext %4, i32 noundef %5, ptr noundef %6, ptr noundef %7) local_unnamed_addr #0 {
  %9 = alloca ptr, align 8
  %10 = alloca ptr, align 8
  %11 = alloca i64, align 8
  %12 = alloca ptr, align 8
  store ptr null, ptr %12, align 8
  %.not = icmp eq ptr %7, null
  br i1 %.not, label %14, label %13

13:                                               ; preds = %8
  store ptr null, ptr %7, align 8
  br label %14

14:                                               ; preds = %13, %8
  %15 = xor i1 %4, true
  %16 = zext i1 %15 to i32
  %17 = call i32 @phar_detect_phar_fname_ext(ptr noundef %0, i64 noundef %1, ptr noundef nonnull %9, ptr noundef nonnull %11, i32 noundef %16, i32 noundef 0, i32 noundef 1), !range !5
  %18 = icmp eq i32 %17, 0
  br i1 %18, label %30, label %19

19:                                               ; preds = %14
  %20 = call i32 @phar_detect_phar_fname_ext(ptr noundef %0, i64 noundef %1, ptr noundef nonnull %9, ptr noundef nonnull %11, i32 noundef %16, i32 noundef 1, i32 noundef 1), !range !5
  %21 = icmp eq i32 %20, -1
  br i1 %21, label %22, label %30

22:                                               ; preds = %19
  br i1 %.not, label %92, label %23

23:                                               ; preds = %22
  %24 = load i64, ptr %11, align 8
  %25 = icmp eq i64 %24, -2
  br i1 %25, label %26, label %28

26:                                               ; preds = %23
  %27 = tail call i64 (ptr, i64, ptr, ...) @zend_spprintf(ptr noundef nonnull %7, i64 noundef 0, ptr noundef nonnull @.str.2, ptr noundef %0) #23
  br label %92

28:                                               ; preds = %23
  %29 = tail call i64 (ptr, i64, ptr, ...) @zend_spprintf(ptr noundef nonnull %7, i64 noundef 0, ptr noundef nonnull @.str.3, ptr noundef %0) #23
  br label %92

30:                                               ; preds = %19, %14
  %31 = call i32 @phar_open_parsed_phar(ptr noundef %0, i64 noundef %1, ptr noundef %2, i64 noundef %3, i1 noundef zeroext %4, i32 noundef %5, ptr noundef nonnull %12, ptr noundef nonnull %10), !range !5
  %32 = icmp eq i32 %31, 0
  br i1 %32, label %33, label %59

33:                                               ; preds = %30
  %.not89 = icmp eq ptr %6, null
  %.pre = load ptr, ptr %12, align 8
  br i1 %.not89, label %35, label %34

34:                                               ; preds = %33
  store ptr %.pre, ptr %6, align 8
  br label %35

35:                                               ; preds = %34, %33
  %36 = getelementptr inbounds i8, ptr %.pre, i64 324
  %37 = load i16, ptr %36, align 4
  %38 = and i16 %37, 224
  %or.cond100 = icmp eq i16 %38, 128
  br i1 %or.cond100, label %39, label %42

39:                                               ; preds = %35
  br i1 %.not, label %92, label %40

40:                                               ; preds = %39
  %41 = call i64 (ptr, i64, ptr, ...) @zend_spprintf(ptr noundef nonnull %7, i64 noundef 0, ptr noundef nonnull @.str.4, ptr noundef %0) #23
  br label %92

42:                                               ; preds = %35
  %43 = and i16 %37, 128
  %44 = load i32, ptr getelementptr inbounds (%struct._zend_phar_globals, ptr @phar_globals, i64 0, i32 5), align 4
  %.not93 = icmp ne i32 %44, 0
  %.not94 = icmp eq i16 %43, 0
  %or.cond = and i1 %.not93, %.not94
  br i1 %or.cond, label %45, label %.thread

45:                                               ; preds = %42
  %46 = and i16 %37, 96
  %or.cond101 = icmp eq i16 %46, 0
  br i1 %or.cond101, label %.thread113, label %47

47:                                               ; preds = %45
  %48 = getelementptr inbounds i8, ptr %.pre, i64 72
  %49 = call ptr @zend_hash_str_find(ptr noundef nonnull %48, ptr noundef nonnull @.str, i64 noundef 14) #23
  %.not97 = icmp eq ptr %49, null
  br i1 %.not97, label %50, label %52

50:                                               ; preds = %47
  %51 = call i64 (ptr, i64, ptr, ...) @zend_spprintf(ptr noundef %7, i64 noundef 0, ptr noundef nonnull @.str.1, ptr noundef %0) #23
  br label %92

52:                                               ; preds = %47
  %.pr.pre = load i32, ptr getelementptr inbounds (%struct._zend_phar_globals, ptr @phar_globals, i64 0, i32 5), align 4
  %.pre119.pre = load ptr, ptr %12, align 8
  %53 = icmp eq i32 %.pr.pre, 0
  br i1 %53, label %..thread_crit_edge, label %.thread113

..thread_crit_edge:                               ; preds = %52
  %.phi.trans.insert120 = getelementptr inbounds i8, ptr %.pre119.pre, i64 324
  %.pre121 = load i16, ptr %.phi.trans.insert120, align 4
  br label %.thread

.thread113:                                       ; preds = %45, %52
  %.pre119127 = phi ptr [ %.pre119.pre, %52 ], [ %.pre, %45 ]
  %.phi.trans.insert = getelementptr inbounds i8, ptr %.pre119127, i64 324
  %.pre118 = load i16, ptr %.phi.trans.insert, align 4
  %.pre123 = and i16 %.pre118, 128
  %54 = icmp eq i16 %.pre123, 0
  br i1 %54, label %92, label %.thread

.thread:                                          ; preds = %..thread_crit_edge, %42, %.thread113
  %55 = phi i16 [ %37, %42 ], [ %.pre118, %.thread113 ], [ %.pre121, %..thread_crit_edge ]
  %56 = phi ptr [ %.pre, %42 ], [ %.pre119127, %.thread113 ], [ %.pre119.pre, %..thread_crit_edge ]
  %57 = getelementptr inbounds i8, ptr %56, i64 324
  %58 = or i16 %55, 4
  store i16 %58, ptr %57, align 4
  br label %92

59:                                               ; preds = %30
  %60 = load ptr, ptr %10, align 8
  %.not83 = icmp eq ptr %60, null
  br i1 %.not83, label %64, label %61

61:                                               ; preds = %59
  br i1 %.not, label %63, label %62

62:                                               ; preds = %61
  store ptr %60, ptr %7, align 8
  br label %92

63:                                               ; preds = %61
  call void @_efree(ptr noundef nonnull %60) #23
  br label %92

64:                                               ; preds = %59
  %65 = load i64, ptr %11, align 8
  %66 = icmp ugt i64 %65, 3
  br i1 %66, label %67, label %90

67:                                               ; preds = %64
  %68 = load ptr, ptr %9, align 8
  %69 = call ptr @memchr(ptr noundef %68, i32 noundef 122, i64 noundef %65) #24
  %.not84 = icmp ne ptr %69, null
  %70 = getelementptr inbounds i8, ptr %68, i64 %65
  %71 = ptrtoint ptr %70 to i64
  %72 = ptrtoint ptr %69 to i64
  %73 = sub i64 %71, %72
  %74 = icmp sgt i64 %73, 1
  %or.cond106 = select i1 %.not84, i1 %74, i1 false
  br i1 %or.cond106, label %75, label %80

75:                                               ; preds = %67
  %76 = getelementptr inbounds i8, ptr %69, i64 1
  %bcmp = call i32 @bcmp(ptr noundef nonnull dereferenceable(2) %76, ptr noundef nonnull dereferenceable(2) @.str.5, i64 2)
  %.not85 = icmp eq i32 %bcmp, 0
  br i1 %.not85, label %77, label %80

77:                                               ; preds = %75
  %78 = zext i1 %4 to i32
  %79 = call i32 @phar_open_or_create_zip(ptr noundef %0, i64 noundef %1, ptr noundef %2, i64 noundef %3, i32 noundef %78, i32 noundef %5, ptr noundef %6, ptr noundef %7) #23
  br label %92

80:                                               ; preds = %75, %67
  %81 = call ptr @memchr(ptr noundef %68, i32 noundef 116, i64 noundef %65) #24
  %.not86 = icmp ne ptr %81, null
  %82 = ptrtoint ptr %81 to i64
  %83 = sub i64 %71, %82
  %84 = icmp sgt i64 %83, 1
  %or.cond111 = select i1 %.not86, i1 %84, i1 false
  br i1 %or.cond111, label %85, label %90

85:                                               ; preds = %80
  %86 = getelementptr inbounds i8, ptr %81, i64 1
  %bcmp87 = call i32 @bcmp(ptr noundef nonnull dereferenceable(2) %86, ptr noundef nonnull dereferenceable(2) @.str.6, i64 2)
  %.not88 = icmp eq i32 %bcmp87, 0
  br i1 %.not88, label %87, label %90

87:                                               ; preds = %85
  %88 = zext i1 %4 to i32
  %89 = call i32 @phar_open_or_create_tar(ptr noundef %0, i64 noundef %1, ptr noundef %2, i64 noundef %3, i32 noundef %88, i32 noundef %5, ptr noundef %6, ptr noundef %7) #23
  br label %92

90:                                               ; preds = %64, %85, %80
  %91 = call i32 @phar_create_or_parse_filename(ptr noundef %0, i64 noundef %1, ptr noundef %2, i64 noundef %3, i1 noundef zeroext %4, i32 noundef %5, ptr noundef %6, ptr noundef %7), !range !5
  br label %92

92:                                               ; preds = %62, %63, %.thread113, %.thread, %39, %40, %22, %28, %26, %90, %87, %77, %50
  %.074 = phi i32 [ -1, %50 ], [ %91, %90 ], [ %89, %87 ], [ %79, %77 ], [ -1, %26 ], [ -1, %28 ], [ -1, %22 ], [ -1, %40 ], [ -1, %39 ], [ 0, %.thread ], [ 0, %.thread113 ], [ -1, %63 ], [ -1, %62 ]
  ret i32 %.074
}